ARM GAS  /tmp/cceaMHxP.s 			page 1


   1              		.cpu cortex-m4
   2              		.arch armv7e-m
   3              		.fpu fpv4-sp-d16
   4              		.eabi_attribute 27, 1
   5              		.eabi_attribute 28, 1
   6              		.eabi_attribute 20, 1
   7              		.eabi_attribute 21, 1
   8              		.eabi_attribute 23, 3
   9              		.eabi_attribute 24, 1
  10              		.eabi_attribute 25, 1
  11              		.eabi_attribute 26, 1
  12              		.eabi_attribute 30, 1
  13              		.eabi_attribute 34, 1
  14              		.eabi_attribute 18, 4
  15              		.file	"motor_dc.c"
  16              		.text
  17              	.Ltext0:
  18              		.cfi_sections	.debug_frame
  19              		.file 1 "Core/Src/motor_dc.c"
  20              		.section	.text.setup_motor_dc,"ax",%progbits
  21              		.align	1
  22              		.global	setup_motor_dc
  23              		.syntax unified
  24              		.thumb
  25              		.thumb_func
  27              	setup_motor_dc:
  28              	.LFB220:
   1:Core/Src/motor_dc.c **** #include <math.h>
   2:Core/Src/motor_dc.c **** #include "stm32f4xx_hal.h"
   3:Core/Src/motor_dc.c **** #include "motor_dc.h"
   4:Core/Src/motor_dc.c **** 
   5:Core/Src/motor_dc.c **** 
   6:Core/Src/motor_dc.c **** void setup_motor_dc(){
  29              		.loc 1 6 22 view -0
  30              		.cfi_startproc
  31              		@ args = 0, pretend = 0, frame = 0
  32              		@ frame_needed = 0, uses_anonymous_args = 0
  33 0000 38B5     		push	{r3, r4, r5, lr}
  34              	.LCFI0:
  35              		.cfi_def_cfa_offset 16
  36              		.cfi_offset 3, -16
  37              		.cfi_offset 4, -12
  38              		.cfi_offset 5, -8
  39              		.cfi_offset 14, -4
   7:Core/Src/motor_dc.c ****     __HAL_TIM_SetCompare(&htim3,TIM_CHANNEL_1,0);
  40              		.loc 1 7 5 view .LVU1
  41 0002 0C4D     		ldr	r5, .L3
  42 0004 2B68     		ldr	r3, [r5]
  43 0006 0021     		movs	r1, #0
  44 0008 5963     		str	r1, [r3, #52]
   8:Core/Src/motor_dc.c ****     __HAL_TIM_SetCompare(&htim3,TIM_CHANNEL_2,0);
  45              		.loc 1 8 5 view .LVU2
  46 000a 9963     		str	r1, [r3, #56]
   9:Core/Src/motor_dc.c ****     __HAL_TIM_SetCompare(&htim4,TIM_CHANNEL_3,0);
  47              		.loc 1 9 5 view .LVU3
  48 000c 0A4C     		ldr	r4, .L3+4
  49 000e 2368     		ldr	r3, [r4]
ARM GAS  /tmp/cceaMHxP.s 			page 2


  50 0010 D963     		str	r1, [r3, #60]
  10:Core/Src/motor_dc.c ****     __HAL_TIM_SetCompare(&htim4,TIM_CHANNEL_4,0);
  51              		.loc 1 10 5 view .LVU4
  52 0012 1964     		str	r1, [r3, #64]
  11:Core/Src/motor_dc.c ****     HAL_TIM_PWM_Start(&htim3, TIM_CHANNEL_1); 
  53              		.loc 1 11 5 view .LVU5
  54 0014 2846     		mov	r0, r5
  55 0016 FFF7FEFF 		bl	HAL_TIM_PWM_Start
  56              	.LVL0:
  12:Core/Src/motor_dc.c ****     HAL_TIM_PWM_Start(&htim3, TIM_CHANNEL_2);
  57              		.loc 1 12 5 view .LVU6
  58 001a 0421     		movs	r1, #4
  59 001c 2846     		mov	r0, r5
  60 001e FFF7FEFF 		bl	HAL_TIM_PWM_Start
  61              	.LVL1:
  13:Core/Src/motor_dc.c ****     HAL_TIM_PWM_Start(&htim4, TIM_CHANNEL_3); 
  62              		.loc 1 13 5 view .LVU7
  63 0022 0821     		movs	r1, #8
  64 0024 2046     		mov	r0, r4
  65 0026 FFF7FEFF 		bl	HAL_TIM_PWM_Start
  66              	.LVL2:
  14:Core/Src/motor_dc.c ****     HAL_TIM_PWM_Start(&htim4, TIM_CHANNEL_4);
  67              		.loc 1 14 5 view .LVU8
  68 002a 0C21     		movs	r1, #12
  69 002c 2046     		mov	r0, r4
  70 002e FFF7FEFF 		bl	HAL_TIM_PWM_Start
  71              	.LVL3:
  15:Core/Src/motor_dc.c **** 
  16:Core/Src/motor_dc.c **** }
  72              		.loc 1 16 1 is_stmt 0 view .LVU9
  73 0032 38BD     		pop	{r3, r4, r5, pc}
  74              	.L4:
  75              		.align	2
  76              	.L3:
  77 0034 00000000 		.word	htim3
  78 0038 00000000 		.word	htim4
  79              		.cfi_endproc
  80              	.LFE220:
  82              		.section	.text.control_motor_dc,"ax",%progbits
  83              		.align	1
  84              		.global	control_motor_dc
  85              		.syntax unified
  86              		.thumb
  87              		.thumb_func
  89              	control_motor_dc:
  90              	.LVL4:
  91              	.LFB221:
  17:Core/Src/motor_dc.c **** void control_motor_dc(uint32_t speed_A,uint32_t speed_B){
  92              		.loc 1 17 57 is_stmt 1 view -0
  93              		.cfi_startproc
  94              		@ args = 0, pretend = 0, frame = 0
  95              		@ frame_needed = 0, uses_anonymous_args = 0
  96              		@ link register save eliminated.
  18:Core/Src/motor_dc.c ****     __HAL_TIM_SetCompare(&htim3,TIM_CHANNEL_1,PWM[0]);
  97              		.loc 1 18 5 view .LVU11
  98 0000 064B     		ldr	r3, .L6
  99 0002 1A68     		ldr	r2, [r3]
ARM GAS  /tmp/cceaMHxP.s 			page 3


 100 0004 064B     		ldr	r3, .L6+4
 101 0006 1968     		ldr	r1, [r3]
 102              	.LVL5:
 103              		.loc 1 18 5 is_stmt 0 view .LVU12
 104 0008 5163     		str	r1, [r2, #52]
  19:Core/Src/motor_dc.c ****     __HAL_TIM_SetCompare(&htim3,TIM_CHANNEL_2,PWM[1]);
 105              		.loc 1 19 5 is_stmt 1 view .LVU13
 106 000a 5968     		ldr	r1, [r3, #4]
 107 000c 9163     		str	r1, [r2, #56]
  20:Core/Src/motor_dc.c ****     __HAL_TIM_SetCompare(&htim4,TIM_CHANNEL_3,PWM[2]);
 108              		.loc 1 20 5 view .LVU14
 109 000e 054A     		ldr	r2, .L6+8
 110 0010 1268     		ldr	r2, [r2]
 111 0012 9968     		ldr	r1, [r3, #8]
 112 0014 D163     		str	r1, [r2, #60]
  21:Core/Src/motor_dc.c ****     __HAL_TIM_SetCompare(&htim4,TIM_CHANNEL_4,PWM[3]);
 113              		.loc 1 21 5 view .LVU15
 114 0016 DB68     		ldr	r3, [r3, #12]
 115 0018 1364     		str	r3, [r2, #64]
  22:Core/Src/motor_dc.c **** 
  23:Core/Src/motor_dc.c **** }
 116              		.loc 1 23 1 is_stmt 0 view .LVU16
 117 001a 7047     		bx	lr
 118              	.L7:
 119              		.align	2
 120              	.L6:
 121 001c 00000000 		.word	htim3
 122 0020 00000000 		.word	PWM
 123 0024 00000000 		.word	htim4
 124              		.cfi_endproc
 125              	.LFE221:
 127              		.section	.text.control_motor_A_forward,"ax",%progbits
 128              		.align	1
 129              		.global	control_motor_A_forward
 130              		.syntax unified
 131              		.thumb
 132              		.thumb_func
 134              	control_motor_A_forward:
 135              	.LVL6:
 136              	.LFB222:
  24:Core/Src/motor_dc.c **** 
  25:Core/Src/motor_dc.c **** void control_motor_A_forward(uint32_t speed_A){
 137              		.loc 1 25 47 is_stmt 1 view -0
 138              		.cfi_startproc
 139              		@ args = 0, pretend = 0, frame = 0
 140              		@ frame_needed = 0, uses_anonymous_args = 0
 141              		@ link register save eliminated.
  26:Core/Src/motor_dc.c ****     __HAL_TIM_SetCompare(&htim3,TIM_CHANNEL_1,PWM[0]);
 142              		.loc 1 26 5 view .LVU18
 143 0000 034B     		ldr	r3, .L9
 144 0002 1B68     		ldr	r3, [r3]
 145 0004 034A     		ldr	r2, .L9+4
 146 0006 1168     		ldr	r1, [r2]
 147 0008 5963     		str	r1, [r3, #52]
  27:Core/Src/motor_dc.c ****     __HAL_TIM_SetCompare(&htim3,TIM_CHANNEL_2,PWM[1]);
 148              		.loc 1 27 5 view .LVU19
 149 000a 5268     		ldr	r2, [r2, #4]
ARM GAS  /tmp/cceaMHxP.s 			page 4


 150 000c 9A63     		str	r2, [r3, #56]
  28:Core/Src/motor_dc.c **** }
 151              		.loc 1 28 1 is_stmt 0 view .LVU20
 152 000e 7047     		bx	lr
 153              	.L10:
 154              		.align	2
 155              	.L9:
 156 0010 00000000 		.word	htim3
 157 0014 00000000 		.word	PWM
 158              		.cfi_endproc
 159              	.LFE222:
 161              		.section	.text.control_motor_B_forward,"ax",%progbits
 162              		.align	1
 163              		.global	control_motor_B_forward
 164              		.syntax unified
 165              		.thumb
 166              		.thumb_func
 168              	control_motor_B_forward:
 169              	.LVL7:
 170              	.LFB223:
  29:Core/Src/motor_dc.c **** 
  30:Core/Src/motor_dc.c **** void control_motor_B_forward(uint32_t speed_A){
 171              		.loc 1 30 47 is_stmt 1 view -0
 172              		.cfi_startproc
 173              		@ args = 0, pretend = 0, frame = 0
 174              		@ frame_needed = 0, uses_anonymous_args = 0
 175              		@ link register save eliminated.
  31:Core/Src/motor_dc.c ****     __HAL_TIM_SetCompare(&htim4,TIM_CHANNEL_3,PWM[2]);
 176              		.loc 1 31 5 view .LVU22
 177 0000 034B     		ldr	r3, .L12
 178 0002 1B68     		ldr	r3, [r3]
 179 0004 034A     		ldr	r2, .L12+4
 180 0006 9168     		ldr	r1, [r2, #8]
 181 0008 D963     		str	r1, [r3, #60]
  32:Core/Src/motor_dc.c ****     __HAL_TIM_SetCompare(&htim4,TIM_CHANNEL_4,PWM[3]);
 182              		.loc 1 32 5 view .LVU23
 183 000a D268     		ldr	r2, [r2, #12]
 184 000c 1A64     		str	r2, [r3, #64]
  33:Core/Src/motor_dc.c **** }...
 185              		.loc 1 33 1 is_stmt 0 view .LVU24
 186 000e 7047     		bx	lr
 187              	.L13:
 188              		.align	2
 189              	.L12:
 190 0010 00000000 		.word	htim4
 191 0014 00000000 		.word	PWM
 192              		.cfi_endproc
 193              	.LFE223:
 195              		.text
 196              	.Letext0:
 197              		.file 2 "/home/vanmanh/tool/arm-gnu-toolchain-13.3.rel1-x86_64-arm-none-eabi/arm-none-eabi/include
 198              		.file 3 "/home/vanmanh/tool/arm-gnu-toolchain-13.3.rel1-x86_64-arm-none-eabi/arm-none-eabi/include
 199              		.file 4 "Drivers/CMSIS/Device/ST/STM32F4xx/Include/stm32f411xe.h"
 200              		.file 5 "Drivers/STM32F4xx_HAL_Driver/Inc/stm32f4xx_hal_def.h"
 201              		.file 6 "Drivers/STM32F4xx_HAL_Driver/Inc/stm32f4xx_hal_dma.h"
 202              		.file 7 "Drivers/STM32F4xx_HAL_Driver/Inc/stm32f4xx_hal_tim.h"
 203              		.file 8 "Core/Inc/motor_dc.h"
ARM GAS  /tmp/cceaMHxP.s 			page 5


ARM GAS  /tmp/cceaMHxP.s 			page 6

